; Function Attrs: mustprogress nofree norecurse nosync nounwind memory(write, argmem: readwrite, inaccessiblemem: none) uwtable
define void @_ZN6LibRaw23dcb_restore_from_bufferEPA3_f(ptr noundef nonnull readonly align 8 captures(none) dereferenceable(767680) %0, ptr noundef readonly captures(none) %1) local_unnamed_addr #2 align 2 {
  %3 = getelementptr inbounds nuw i8, ptr %0, i64 20
  %4 = getelementptr inbounds nuw i8, ptr %0, i64 22
  %5 = load i16, ptr %3, align 4, !tbaa !71
  %6 = zext i16 %5 to i32
  %7 = load i16, ptr %4, align 2, !tbaa !6
  %8 = zext i16 %7 to i32
  %9 = mul nuw nsw i32 %8, %6
  %.not = icmp eq i32 %9, 0
  br i1 %.not, label %._crit_edge, label %.lr.ph

.lr.ph:                                           ; preds = %2
  %10 = getelementptr inbounds nuw i8, ptr %0, i64 8
  %11 = load ptr, ptr %10, align 8, !tbaa !94
  br label %12

12:                                               ; preds = %.lr.ph, %12
  %indvars.iv = phi i64 [ 0, %.lr.ph ], [ %indvars.iv.next, %12 ]
  %13 = getelementptr inbounds nuw [3 x float], ptr %1, i64 %indvars.iv
  %14 = load float, ptr %13, align 4, !tbaa !74
  %15 = fptoui float %14 to i16
  %16 = getelementptr inbounds nuw [4 x i16], ptr %11, i64 %indvars.iv
  store i16 %15, ptr %16, align 2, !tbaa !73
  %17 = getelementptr inbounds nuw i8, ptr %13, i64 8
  %18 = load float, ptr %17, align 4, !tbaa !74
  %19 = fptoui float %18 to i16
  %20 = getelementptr inbounds nuw [4 x i16], ptr %11, i64 %indvars.iv, i64 2
  store i16 %19, ptr %20, align 2, !tbaa !73
  %indvars.iv.next = add nuw nsw i64 %indvars.iv, 1
  %21 = load i16, ptr %3, align 4, !tbaa !71
  %22 = zext i16 %21 to i64
  %23 = load i16, ptr %4, align 2, !tbaa !6
  %24 = zext i16 %23 to i64
  %25 = mul nuw nsw i64 %24, %22
  %26 = icmp samesign ult i64 %indvars.iv.next, %25
  br i1 %26, label %12, label %._crit_edge, !llvm.loop !96

._crit_edge:                                      ; preds = %12, %2
  ret void
}